target datalayout = "e-m:e-p270:32:32-p271:32:32-p272:64:64-i64:64-i128:128-f80:128-n8:16:32:64-S128"
target triple = "x86_64-pc-linux-gnu"

%struct.mbedtls_ecp_group = type { i32, %struct.mbedtls_mpi, %struct.mbedtls_mpi, %struct.mbedtls_mpi, %struct.mbedtls_ecp_point, %struct.mbedtls_mpi, i64, i64, i32, ptr, ptr, ptr, ptr, ptr, i64 }
%struct.mbedtls_ecp_point = type { %struct.mbedtls_mpi, %struct.mbedtls_mpi, %struct.mbedtls_mpi }
%struct.mbedtls_mpi = type { ptr, i16, i16 }

; Function Attrs: nounwind uwtable
define hidden void @mbedtls_ecp_point_free(ptr noundef %0) #0 {
  %2 = alloca ptr, align 8
  store ptr %0, ptr %2, align 8, !tbaa !34
  %3 = load ptr, ptr %2, align 8, !tbaa !34
  %4 = icmp eq ptr %3, null
  br i1 %4, label %5, label %6

5:                                                ; preds = %1
  br label %13

6:                                                ; preds = %1
  %7 = load ptr, ptr %2, align 8, !tbaa !34
  %8 = getelementptr inbounds nuw %struct.mbedtls_ecp_point, ptr %7, i32 0, i32 0
  call void @mbedtls_mpi_free(ptr noundef %8)
  %9 = load ptr, ptr %2, align 8, !tbaa !34
  %10 = getelementptr inbounds nuw %struct.mbedtls_ecp_point, ptr %9, i32 0, i32 1
  call void @mbedtls_mpi_free(ptr noundef %10)
  %11 = load ptr, ptr %2, align 8, !tbaa !34
  %12 = getelementptr inbounds nuw %struct.mbedtls_ecp_point, ptr %11, i32 0, i32 2
  call void @mbedtls_mpi_free(ptr noundef %12)
  br label %13

13:                                               ; preds = %6, %5
  ret void
}

; Function Attrs: nounwind uwtable
define internal void @mpi_free_many(ptr noundef %0, i64 noundef %1) #0 {
  %3 = alloca ptr, align 8
  %4 = alloca i64, align 8
  store ptr %0, ptr %3, align 8, !tbaa !50
  store i64 %1, ptr %4, align 8, !tbaa !7
  br label %5

5:                                                ; preds = %9, %2
  %6 = load i64, ptr %4, align 8, !tbaa !7
  %7 = add i64 %6, -1
  store i64 %7, ptr %4, align 8, !tbaa !7
  %8 = icmp ne i64 %6, 0
  br i1 %8, label %9, label %12

9:                                                ; preds = %5
  %10 = load ptr, ptr %3, align 8, !tbaa !50
  %11 = getelementptr inbounds nuw %struct.mbedtls_mpi, ptr %10, i32 1
  store ptr %11, ptr %3, align 8, !tbaa !50
  call void @mbedtls_mpi_free(ptr noundef %10)
  br label %5, !llvm.loop !58

12:                                               ; preds = %5
  ret void
}

; Function Attrs: nounwind uwtable
define internal void @mpi_init_many(ptr noundef %0, i64 noundef %1) #0 {
  %3 = alloca ptr, align 8
  %4 = alloca i64, align 8
  store ptr %0, ptr %3, align 8, !tbaa !50
  store i64 %1, ptr %4, align 8, !tbaa !7
  br label %5

5:                                                ; preds = %9, %2
  %6 = load i64, ptr %4, align 8, !tbaa !7
  %7 = add i64 %6, -1
  store i64 %7, ptr %4, align 8, !tbaa !7
  %8 = icmp ne i64 %6, 0
  br i1 %8, label %9, label %12

9:                                                ; preds = %5
  %10 = load ptr, ptr %3, align 8, !tbaa !50
  %11 = getelementptr inbounds nuw %struct.mbedtls_mpi, ptr %10, i32 1
  store ptr %11, ptr %3, align 8, !tbaa !50
  call void @mbedtls_mpi_init(ptr noundef %10)
  br label %5, !llvm.loop !56

12:                                               ; preds = %5
  ret void
}

; Function Attrs: nounwind uwtable
define hidden void @mbedtls_ecp_point_init(ptr noundef %0) #0 {
  %2 = alloca ptr, align 8
  store ptr %0, ptr %2, align 8, !tbaa !34
  %3 = load ptr, ptr %2, align 8, !tbaa !34
  %4 = getelementptr inbounds nuw %struct.mbedtls_ecp_point, ptr %3, i32 0, i32 0
  call void @mbedtls_mpi_init(ptr noundef %4)
  %5 = load ptr, ptr %2, align 8, !tbaa !34
  %6 = getelementptr inbounds nuw %struct.mbedtls_ecp_point, ptr %5, i32 0, i32 1
  call void @mbedtls_mpi_init(ptr noundef %6)
  %7 = load ptr, ptr %2, align 8, !tbaa !34
  %8 = getelementptr inbounds nuw %struct.mbedtls_ecp_point, ptr %7, i32 0, i32 2
  call void @mbedtls_mpi_init(ptr noundef %8)
  ret void
}

; Function Attrs: nounwind uwtable
define hidden i32 @mbedtls_ecp_get_type(ptr noundef %0) #0 {
  %2 = alloca i32, align 4
  %3 = alloca ptr, align 8
  store ptr %0, ptr %3, align 8, !tbaa !25
  %4 = load ptr, ptr %3, align 8, !tbaa !25
  %5 = getelementptr inbounds nuw %struct.mbedtls_ecp_group, ptr %4, i32 0, i32 4
  %6 = getelementptr inbounds nuw %struct.mbedtls_ecp_point, ptr %5, i32 0, i32 0
  %7 = getelementptr inbounds nuw %struct.mbedtls_mpi, ptr %6, i32 0, i32 0
  %8 = load ptr, ptr %7, align 8, !tbaa !27
  %9 = icmp eq ptr %8, null
  br i1 %9, label %10, label %11

10:                                               ; preds = %1
  store i32 0, ptr %2, align 4
  br label %20

11:                                               ; preds = %1
  %12 = load ptr, ptr %3, align 8, !tbaa !25
  %13 = getelementptr inbounds nuw %struct.mbedtls_ecp_group, ptr %12, i32 0, i32 4
  %14 = getelementptr inbounds nuw %struct.mbedtls_ecp_point, ptr %13, i32 0, i32 1
  %15 = getelementptr inbounds nuw %struct.mbedtls_mpi, ptr %14, i32 0, i32 0
  %16 = load ptr, ptr %15, align 8, !tbaa !33
  %17 = icmp eq ptr %16, null
  br i1 %17, label %18, label %19

18:                                               ; preds = %11
  store i32 2, ptr %2, align 4
  br label %20

19:                                               ; preds = %11
  store i32 1, ptr %2, align 4
  br label %20

20:                                               ; preds = %19, %18, %10
  %21 = load i32, ptr %2, align 4
  ret i32 %21
}

; Function Attrs: nounwind uwtable
define hidden i32 @mbedtls_ecp_muladd_restartable(ptr noundef %0, ptr noundef %1, ptr noundef %2, ptr noundef %3, ptr noundef %4, ptr noundef %5, ptr noundef %6) #0 {
  %8 = alloca i32, align 4
  %9 = alloca ptr, align 8
  %10 = alloca ptr, align 8
  %11 = alloca ptr, align 8
  %12 = alloca ptr, align 8
  %13 = alloca ptr, align 8
  %14 = alloca ptr, align 8
  %15 = alloca ptr, align 8
  %16 = alloca i32, align 4
  %17 = alloca %struct.mbedtls_ecp_point, align 8
  %18 = alloca ptr, align 8
  %19 = alloca ptr, align 8
  %20 = alloca [4 x %struct.mbedtls_mpi], align 16
  %21 = alloca i32, align 4
  store ptr %0, ptr %9, align 8, !tbaa !25
  store ptr %1, ptr %10, align 8, !tbaa !34
  store ptr %2, ptr %11, align 8, !tbaa !50
  store ptr %3, ptr %12, align 8, !tbaa !34
  store ptr %4, ptr %13, align 8, !tbaa !50
  store ptr %5, ptr %14, align 8, !tbaa !34
  store ptr %6, ptr %15, align 8, !tbaa !55
  call void @llvm.lifetime.start.p0(i64 4, ptr %16) #11
  store i32 -110, ptr %16, align 4, !tbaa !3
  call void @llvm.lifetime.start.p0(i64 48, ptr %17) #11
  call void @llvm.lifetime.start.p0(i64 8, ptr %18) #11
  store ptr %17, ptr %18, align 8, !tbaa !34
  call void @llvm.lifetime.start.p0(i64 8, ptr %19) #11
  %22 = load ptr, ptr %10, align 8, !tbaa !34
  store ptr %22, ptr %19, align 8, !tbaa !34
  call void @llvm.lifetime.start.p0(i64 64, ptr %20) #11
  %23 = load ptr, ptr %9, align 8, !tbaa !25
  %24 = call i32 @mbedtls_ecp_get_type(ptr noundef %23)
  %25 = icmp ne i32 %24, 1
  br i1 %25, label %26, label %27

26:                                               ; preds = %7
  store i32 -20096, ptr %8, align 4
  store i32 1, ptr %21, align 4
  br label %77

27:                                               ; preds = %7
  call void @mbedtls_ecp_point_init(ptr noundef %17)
  %28 = getelementptr inbounds [4 x %struct.mbedtls_mpi], ptr %20, i64 0, i64 0
  call void @mpi_init_many(ptr noundef %28, i64 noundef 4)
  br label %29

29:                                               ; preds = %27
  %30 = load ptr, ptr %9, align 8, !tbaa !25
  %31 = load ptr, ptr %18, align 8, !tbaa !34
  %32 = load ptr, ptr %11, align 8, !tbaa !50
  %33 = load ptr, ptr %12, align 8, !tbaa !34
  %34 = load ptr, ptr %15, align 8, !tbaa !55
  %35 = call i32 @mbedtls_ecp_mul_shortcuts(ptr noundef %30, ptr noundef %31, ptr noundef %32, ptr noundef %33, ptr noundef %34)
  store i32 %35, ptr %16, align 4, !tbaa !3
  %36 = icmp ne i32 %35, 0
  br i1 %36, label %37, label %38

37:                                               ; preds = %29
  br label %74

38:                                               ; preds = %29
  br label %39

39:                                               ; preds = %38
  br label %40

40:                                               ; preds = %39
  br label %41

41:                                               ; preds = %40
  %42 = load ptr, ptr %9, align 8, !tbaa !25
  %43 = load ptr, ptr %19, align 8, !tbaa !34
  %44 = load ptr, ptr %13, align 8, !tbaa !50
  %45 = load ptr, ptr %14, align 8, !tbaa !34
  %46 = load ptr, ptr %15, align 8, !tbaa !55
  %47 = call i32 @mbedtls_ecp_mul_shortcuts(ptr noundef %42, ptr noundef %43, ptr noundef %44, ptr noundef %45, ptr noundef %46)
  store i32 %47, ptr %16, align 4, !tbaa !3
  %48 = icmp ne i32 %47, 0
  br i1 %48, label %49, label %50

49:                                               ; preds = %41
  br label %74

50:                                               ; preds = %41
  br label %51

51:                                               ; preds = %50
  br label %52

52:                                               ; preds = %51
  br label %53

53:                                               ; preds = %52
  %54 = load ptr, ptr %9, align 8, !tbaa !25
  %55 = load ptr, ptr %19, align 8, !tbaa !34
  %56 = load ptr, ptr %18, align 8, !tbaa !34
  %57 = load ptr, ptr %19, align 8, !tbaa !34
  %58 = getelementptr inbounds [4 x %struct.mbedtls_mpi], ptr %20, i64 0, i64 0
  %59 = call i32 @ecp_add_mixed(ptr noundef %54, ptr noundef %55, ptr noundef %56, ptr noundef %57, ptr noundef %58)
  store i32 %59, ptr %16, align 4, !tbaa !3
  %60 = icmp ne i32 %59, 0
  br i1 %60, label %61, label %62

61:                                               ; preds = %53
  br label %74

62:                                               ; preds = %53
  br label %63

63:                                               ; preds = %62
  br label %64

64:                                               ; preds = %63
  br label %65

65:                                               ; preds = %64
  %66 = load ptr, ptr %9, align 8, !tbaa !25
  %67 = load ptr, ptr %19, align 8, !tbaa !34
  %68 = call i32 @ecp_normalize_jac(ptr noundef %66, ptr noundef %67)
  store i32 %68, ptr %16, align 4, !tbaa !3
  %69 = icmp ne i32 %68, 0
  br i1 %69, label %70, label %71

70:                                               ; preds = %65
  br label %74

71:                                               ; preds = %65
  br label %72

72:                                               ; preds = %71
  br label %73

73:                                               ; preds = %72
  br label %74

74:                                               ; preds = %73, %70, %61, %49, %37
  %75 = getelementptr inbounds [4 x %struct.mbedtls_mpi], ptr %20, i64 0, i64 0
  call void @mpi_free_many(ptr noundef %75, i64 noundef 4)
  call void @mbedtls_ecp_point_free(ptr noundef %17)
  %76 = load i32, ptr %16, align 4, !tbaa !3
  store i32 %76, ptr %8, align 4
  store i32 1, ptr %21, align 4
  br label %77

77:                                               ; preds = %74, %26
  call void @llvm.lifetime.end.p0(i64 64, ptr %20) #11
  call void @llvm.lifetime.end.p0(i64 8, ptr %19) #11
  call void @llvm.lifetime.end.p0(i64 8, ptr %18) #11
  call void @llvm.lifetime.end.p0(i64 48, ptr %17) #11
  call void @llvm.lifetime.end.p0(i64 4, ptr %16) #11
  %78 = load i32, ptr %8, align 4
  ret i32 %78
}