; Function Attrs: nounwind uwtable
define hidden i32 @mbedtls_ecp_muladd_restartable(ptr noundef %0, ptr noundef %1, ptr noundef %2, ptr noundef %3, ptr noundef %4, ptr noundef %5, ptr readnone captures(none) %6) local_unnamed_addr #7 {
  %8 = alloca %struct.mbedtls_ecp_point, align 8
  %9 = alloca [4 x %struct.mbedtls_mpi], align 16
  call void @llvm.lifetime.start.p0(i64 48, ptr nonnull %8) #21
  call void @llvm.lifetime.start.p0(i64 64, ptr nonnull %9) #21
  %10 = getelementptr inbounds nuw i8, ptr %0, i64 56
  %11 = load ptr, ptr %10, align 8, !tbaa !19
  %12 = icmp eq ptr %11, null
  br i1 %12, label %mbedtls_ecp_get_type.exit.thread, label %13

13:                                               ; preds = %7
  %14 = getelementptr inbounds nuw i8, ptr %0, i64 72
  %15 = load ptr, ptr %14, align 8, !tbaa !26
  %16 = icmp eq ptr %15, null
  br i1 %16, label %mbedtls_ecp_get_type.exit.thread, label %mbedtls_ecp_get_type.exit

mbedtls_ecp_get_type.exit:                        ; preds = %13
  call void @mbedtls_mpi_init(ptr noundef nonnull %8) #21
  %17 = getelementptr inbounds nuw i8, ptr %8, i64 16
  call void @mbedtls_mpi_init(ptr noundef nonnull %17) #21
  %18 = getelementptr inbounds nuw i8, ptr %8, i64 32
  call void @mbedtls_mpi_init(ptr noundef nonnull %18) #21
  br label %19

19:                                               ; preds = %19, %mbedtls_ecp_get_type.exit
  %.03.i = phi i64 [ 4, %mbedtls_ecp_get_type.exit ], [ %20, %19 ]
  %.012.i = phi ptr [ %9, %mbedtls_ecp_get_type.exit ], [ %21, %19 ]
  %20 = add nsw i64 %.03.i, -1
  %21 = getelementptr inbounds nuw i8, ptr %.012.i, i64 16
  call void @mbedtls_mpi_init(ptr noundef nonnull %.012.i) #21
  %.not.i = icmp eq i64 %20, 0
  br i1 %.not.i, label %mpi_init_many.exit, label %19, !llvm.loop !36

mpi_init_many.exit:                               ; preds = %19
  %22 = call fastcc i32 @mbedtls_ecp_mul_shortcuts(ptr noundef nonnull %0, ptr noundef nonnull %8, ptr noundef %2, ptr noundef %3)
  %.not23 = icmp eq i32 %22, 0
  br i1 %.not23, label %23, label %29

23:                                               ; preds = %mpi_init_many.exit
  %24 = call fastcc i32 @mbedtls_ecp_mul_shortcuts(ptr noundef nonnull %0, ptr noundef %1, ptr noundef %4, ptr noundef %5)
  %.not24 = icmp eq i32 %24, 0
  br i1 %.not24, label %25, label %29

25:                                               ; preds = %23
  %26 = call fastcc i32 @ecp_add_mixed(ptr noundef nonnull %0, ptr noundef %1, ptr noundef nonnull %8, ptr noundef %1, ptr noundef %9)
  %.not25 = icmp eq i32 %26, 0
  br i1 %.not25, label %27, label %29

27:                                               ; preds = %25
  %28 = call fastcc i32 @ecp_normalize_jac(ptr noundef nonnull %0, ptr noundef %1)
  br label %29

29:                                               ; preds = %27, %25, %23, %mpi_init_many.exit
  %.019 = phi i32 [ %22, %mpi_init_many.exit ], [ %24, %23 ], [ %26, %25 ], [ %28, %27 ]
  br label %30

30:                                               ; preds = %30, %29
  %.03.i26 = phi i64 [ 4, %29 ], [ %31, %30 ]
  %.012.i27 = phi ptr [ %9, %29 ], [ %32, %30 ]
  %31 = add nsw i64 %.03.i26, -1
  %32 = getelementptr inbounds nuw i8, ptr %.012.i27, i64 16
  call void @mbedtls_mpi_free(ptr noundef nonnull %.012.i27) #21
  %.not.i28 = icmp eq i64 %31, 0
  br i1 %.not.i28, label %mpi_free_many.exit, label %30, !llvm.loop !40

mpi_free_many.exit:                               ; preds = %30
  call void @mbedtls_mpi_free(ptr noundef nonnull %8) #21
  call void @mbedtls_mpi_free(ptr noundef nonnull %17) #21
  call void @mbedtls_mpi_free(ptr noundef nonnull %18) #21
  br label %mbedtls_ecp_get_type.exit.thread

mbedtls_ecp_get_type.exit.thread:                 ; preds = %13, %7, %mpi_free_many.exit
  %.0 = phi i32 [ %.019, %mpi_free_many.exit ], [ -20096, %7 ], [ -20096, %13 ]
  call void @llvm.lifetime.end.p0(i64 64, ptr nonnull %9) #21
  call void @llvm.lifetime.end.p0(i64 48, ptr nonnull %8) #21
  ret i32 %.0
}